; Function Attrs: nounwind sspstrong uwtable
define internal noundef i32 @dbus_mouse_set_pos(ptr noundef readonly captures(none) %ddc, ptr noundef %invocation, i32 noundef %x, i32 noundef %y) #0 {
entry:
  %_now.i.i = alloca %struct.timeval, align 8
  call void @llvm.lifetime.start.p0(i64 16, ptr nonnull %_now.i.i)
  %0 = load i32, ptr @trace_events_enabled_count, align 4
  %tobool.i.i = icmp ne i32 %0, 0
  %1 = load i16, ptr @_TRACE_DBUS_MOUSE_SET_POS_DSTATE, align 2
  %tobool4.i.i = icmp ne i16 %1, 0
  %or.cond.i.i = select i1 %tobool.i.i, i1 %tobool4.i.i, i1 false
  br i1 %or.cond.i.i, label %land.lhs.true5.i.i, label %trace_dbus_mouse_set_pos.exit

land.lhs.true5.i.i:                               ; preds = %entry
  %2 = load i32, ptr @qemu_loglevel, align 4
  %and.i.i.i = and i32 %2, 32768
  %cmp.i.not.i.i = icmp eq i32 %and.i.i.i, 0
  br i1 %cmp.i.not.i.i, label %trace_dbus_mouse_set_pos.exit, label %if.then.i.i

if.then.i.i:                                      ; preds = %land.lhs.true5.i.i
  %3 = load i8, ptr @message_with_timestamp, align 1
  %tobool7.i.i = trunc i8 %3 to i1
  br i1 %tobool7.i.i, label %if.then8.i.i, label %if.else.i.i

if.then8.i.i:                                     ; preds = %if.then.i.i
  %call9.i.i = call i32 @gettimeofday(ptr noundef nonnull %_now.i.i, ptr noundef null) #9
  %call10.i.i = tail call i32 @qemu_get_thread_id() #9
  %4 = load i64, ptr %_now.i.i, align 8
  %tv_usec.i.i = getelementptr inbounds nuw i8, ptr %_now.i.i, i64 8
  %5 = load i64, ptr %tv_usec.i.i, align 8
  tail call void (ptr, ...) @qemu_log(ptr noundef nonnull @.str.42, i32 noundef %call10.i.i, i64 noundef %4, i64 noundef %5, i32 noundef %x, i32 noundef %y) #9
  br label %trace_dbus_mouse_set_pos.exit

if.else.i.i:                                      ; preds = %if.then.i.i
  tail call void (ptr, ...) @qemu_log(ptr noundef nonnull @.str.43, i32 noundef %x, i32 noundef %y) #9
  br label %trace_dbus_mouse_set_pos.exit

trace_dbus_mouse_set_pos.exit:                    ; preds = %entry, %land.lhs.true5.i.i, %if.then8.i.i, %if.else.i.i
  call void @llvm.lifetime.end.p0(i64 16, ptr nonnull %_now.i.i)
  %con = getelementptr inbounds nuw i8, ptr %ddc, i64 56
  %6 = load ptr, ptr %con, align 8
  %call = tail call zeroext i1 @qemu_input_is_absolute(ptr noundef %6) #9
  br i1 %call, label %if.end, label %if.then

if.then:                                          ; preds = %trace_dbus_mouse_set_pos.exit
  %call1 = tail call i32 @dbus_display_error_quark() #9
  tail call void (ptr, i32, i32, ptr, ...) @g_dbus_method_invocation_return_error(ptr noundef %invocation, i32 noundef %call1, i32 noundef 1, ptr noundef nonnull @.str.40) #9
  br label %return

if.end:                                           ; preds = %trace_dbus_mouse_set_pos.exit
  %7 = load ptr, ptr %con, align 8
  %call4 = tail call i32 @qemu_console_get_width(ptr noundef %7, i32 noundef 0) #9
  %8 = load ptr, ptr %con, align 8
  %call7 = tail call i32 @qemu_console_get_height(ptr noundef %8, i32 noundef 0) #9
  %cmp.not = icmp ult i32 %x, %call4
  %cmp8.not = icmp ult i32 %y, %call7
  %or.cond = select i1 %cmp.not, i1 %cmp8.not, i1 false
  br i1 %or.cond, label %if.end11, label %if.then9

if.then9:                                         ; preds = %if.end
  %call10 = tail call i32 @dbus_display_error_quark() #9
  tail call void (ptr, i32, i32, ptr, ...) @g_dbus_method_invocation_return_error(ptr noundef %invocation, i32 noundef %call10, i32 noundef 1, ptr noundef nonnull @.str.41) #9
  br label %return

if.end11:                                         ; preds = %if.end
  %9 = load ptr, ptr %con, align 8
  tail call void @qemu_input_queue_abs(ptr noundef %9, i32 noundef 0, i32 noundef %x, i32 noundef 0, i32 noundef %call4) #9
  %10 = load ptr, ptr %con, align 8
  tail call void @qemu_input_queue_abs(ptr noundef %10, i32 noundef 1, i32 noundef %y, i32 noundef 0, i32 noundef %call7) #9
  tail call void @qemu_input_event_sync() #9
  %iface_mouse = getelementptr inbounds nuw i8, ptr %ddc, i64 120
  %11 = load ptr, ptr %iface_mouse, align 8
  tail call void @qemu_dbus_display1_mouse_complete_set_abs_position(ptr noundef %11, ptr noundef %invocation) #9
  br label %return

return:                                           ; preds = %if.end11, %if.then9, %if.then
  ret i32 1
}